target datalayout = "e-m:e-p270:32:32-p271:32:32-p272:64:64-i64:64-i128:128-f80:128-n8:16:32:64-S128"
target triple = "x86_64-pc-linux-gnu"

%struct.UString = type { ptr, i32, i32 }

; Function Attrs: nounwind uwtable
define internal void @ustr_resize(ptr noundef %0, i32 noundef %1, ptr noundef %2) #0 {
  %4 = alloca ptr, align 8
  %5 = alloca i32, align 4
  %6 = alloca ptr, align 8
  store ptr %0, ptr %4, align 8, !tbaa !4
  store i32 %1, ptr %5, align 4, !tbaa !17
  store ptr %2, ptr %6, align 8, !tbaa !18
  %7 = load ptr, ptr %6, align 8, !tbaa !18
  %8 = load i32, ptr %7, align 4, !tbaa !17
  %9 = icmp sgt i32 %8, 0
  br i1 %9, label %10, label %11

10:                                               ; preds = %3
  br label %36

11:                                               ; preds = %3
  %12 = load ptr, ptr %4, align 8, !tbaa !4
  %13 = getelementptr inbounds nuw %struct.UString, ptr %12, i32 0, i32 0
  %14 = load ptr, ptr %13, align 8, !tbaa !9
  %15 = load i32, ptr %5, align 4, !tbaa !17
  %16 = add nsw i32 %15, 1
  %17 = sext i32 %16 to i64
  %18 = mul i64 2, %17
  %19 = call ptr @uprv_realloc_77(ptr noundef %14, i64 noundef %18) #8
  %20 = load ptr, ptr %4, align 8, !tbaa !4
  %21 = getelementptr inbounds nuw %struct.UString, ptr %20, i32 0, i32 0
  store ptr %19, ptr %21, align 8, !tbaa !9
  %22 = load ptr, ptr %4, align 8, !tbaa !4
  %23 = getelementptr inbounds nuw %struct.UString, ptr %22, i32 0, i32 0
  %24 = load ptr, ptr %23, align 8, !tbaa !9
  %25 = icmp eq ptr %24, null
  br i1 %25, label %26, label %32

26:                                               ; preds = %11
  %27 = load ptr, ptr %6, align 8, !tbaa !18
  store i32 7, ptr %27, align 4, !tbaa !17
  %28 = load ptr, ptr %4, align 8, !tbaa !4
  %29 = getelementptr inbounds nuw %struct.UString, ptr %28, i32 0, i32 2
  store i32 0, ptr %29, align 4, !tbaa !13
  %30 = load ptr, ptr %4, align 8, !tbaa !4
  %31 = getelementptr inbounds nuw %struct.UString, ptr %30, i32 0, i32 1
  store i32 0, ptr %31, align 8, !tbaa !14
  br label %36

32:                                               ; preds = %11
  %33 = load i32, ptr %5, align 4, !tbaa !17
  %34 = load ptr, ptr %4, align 8, !tbaa !4
  %35 = getelementptr inbounds nuw %struct.UString, ptr %34, i32 0, i32 2
  store i32 %33, ptr %35, align 4, !tbaa !13
  br label %36

36:                                               ; preds = %32, %26, %10
  ret void
}

; Function Attrs: nounwind uwtable
define dso_local void @ustr_cpy(ptr noundef %0, ptr noundef %1, ptr noundef %2) #0 {
  %4 = alloca ptr, align 8
  %5 = alloca ptr, align 8
  %6 = alloca ptr, align 8
  store ptr %0, ptr %4, align 8, !tbaa !4
  store ptr %1, ptr %5, align 8, !tbaa !4
  store ptr %2, ptr %6, align 8, !tbaa !18
  %7 = load ptr, ptr %6, align 8, !tbaa !18
  %8 = load i32, ptr %7, align 4, !tbaa !17
  %9 = icmp sgt i32 %8, 0
  br i1 %9, label %14, label %10

10:                                               ; preds = %3
  %11 = load ptr, ptr %4, align 8, !tbaa !4
  %12 = load ptr, ptr %5, align 8, !tbaa !4
  %13 = icmp eq ptr %11, %12
  br i1 %13, label %14, label %15

14:                                               ; preds = %10, %3
  br label %80

15:                                               ; preds = %10
  %16 = load ptr, ptr %4, align 8, !tbaa !4
  %17 = getelementptr inbounds nuw %struct.UString, ptr %16, i32 0, i32 2
  %18 = load i32, ptr %17, align 4, !tbaa !13
  %19 = load ptr, ptr %5, align 8, !tbaa !4
  %20 = getelementptr inbounds nuw %struct.UString, ptr %19, i32 0, i32 1
  %21 = load i32, ptr %20, align 8, !tbaa !14
  %22 = icmp slt i32 %18, %21
  br i1 %22, label %23, label %45

23:                                               ; preds = %15
  %24 = load ptr, ptr %4, align 8, !tbaa !4
  %25 = load ptr, ptr %5, align 8, !tbaa !4
  %26 = getelementptr inbounds nuw %struct.UString, ptr %25, i32 0, i32 1
  %27 = load i32, ptr %26, align 8, !tbaa !14
  %28 = icmp slt i32 %27, 128
  br i1 %28, label %29, label %30

29:                                               ; preds = %23
  br label %37

30:                                               ; preds = %23
  %31 = load ptr, ptr %5, align 8, !tbaa !4
  %32 = getelementptr inbounds nuw %struct.UString, ptr %31, i32 0, i32 1
  %33 = load i32, ptr %32, align 8, !tbaa !14
  %34 = mul nsw i32 2, %33
  %35 = add nsw i32 %34, 128
  %36 = and i32 %35, -128
  br label %37

37:                                               ; preds = %30, %29
  %38 = phi i32 [ 128, %29 ], [ %36, %30 ]
  %39 = load ptr, ptr %6, align 8, !tbaa !18
  call void @ustr_resize(ptr noundef %24, i32 noundef %38, ptr noundef %39)
  %40 = load ptr, ptr %6, align 8, !tbaa !18
  %41 = load i32, ptr %40, align 4, !tbaa !17
  %42 = icmp sgt i32 %41, 0
  br i1 %42, label %43, label %44

43:                                               ; preds = %37
  br label %80

44:                                               ; preds = %37
  br label %45

45:                                               ; preds = %44, %15
  %46 = load ptr, ptr %5, align 8, !tbaa !4
  %47 = getelementptr inbounds nuw %struct.UString, ptr %46, i32 0, i32 0
  %48 = load ptr, ptr %47, align 8, !tbaa !9
  %49 = icmp eq ptr %48, null
  br i1 %49, label %55, label %50

50:                                               ; preds = %45
  %51 = load ptr, ptr %4, align 8, !tbaa !4
  %52 = getelementptr inbounds nuw %struct.UString, ptr %51, i32 0, i32 0
  %53 = load ptr, ptr %52, align 8, !tbaa !9
  %54 = icmp eq ptr %53, null
  br i1 %54, label %55, label %56

55:                                               ; preds = %50, %45
  br label %80

56:                                               ; preds = %50
  %57 = load ptr, ptr %4, align 8, !tbaa !4
  %58 = getelementptr inbounds nuw %struct.UString, ptr %57, i32 0, i32 0
  %59 = load ptr, ptr %58, align 8, !tbaa !9
  %60 = load ptr, ptr %5, align 8, !tbaa !4
  %61 = getelementptr inbounds nuw %struct.UString, ptr %60, i32 0, i32 0
  %62 = load ptr, ptr %61, align 8, !tbaa !9
  %63 = load ptr, ptr %5, align 8, !tbaa !4
  %64 = getelementptr inbounds nuw %struct.UString, ptr %63, i32 0, i32 1
  %65 = load i32, ptr %64, align 8, !tbaa !14
  %66 = call ptr @u_memcpy_77(ptr noundef %59, ptr noundef %62, i32 noundef %65)
  %67 = load ptr, ptr %5, align 8, !tbaa !4
  %68 = getelementptr inbounds nuw %struct.UString, ptr %67, i32 0, i32 1
  %69 = load i32, ptr %68, align 8, !tbaa !14
  %70 = load ptr, ptr %4, align 8, !tbaa !4
  %71 = getelementptr inbounds nuw %struct.UString, ptr %70, i32 0, i32 1
  store i32 %69, ptr %71, align 8, !tbaa !14
  %72 = load ptr, ptr %4, align 8, !tbaa !4
  %73 = getelementptr inbounds nuw %struct.UString, ptr %72, i32 0, i32 0
  %74 = load ptr, ptr %73, align 8, !tbaa !9
  %75 = load ptr, ptr %4, align 8, !tbaa !4
  %76 = getelementptr inbounds nuw %struct.UString, ptr %75, i32 0, i32 1
  %77 = load i32, ptr %76, align 8, !tbaa !14
  %78 = sext i32 %77 to i64
  %79 = getelementptr inbounds i16, ptr %74, i64 %78
  store i16 0, ptr %79, align 2, !tbaa !19
  br label %80

80:                                               ; preds = %56, %55, %43, %14
  ret void
}