; Function Attrs: nounwind uwtable
define dso_local void @ustr_cpy(ptr noundef %0, ptr noundef readonly %1, ptr noundef captures(none) %2) local_unnamed_addr #1 {
  %4 = load i32, ptr %2, align 4, !tbaa !4
  %5 = icmp sgt i32 %4, 0
  %6 = icmp eq ptr %0, %1
  %or.cond = or i1 %6, %5
  br i1 %or.cond, label %43, label %7

7:                                                ; preds = %3
  %8 = getelementptr inbounds nuw i8, ptr %0, i64 12
  %9 = load i32, ptr %8, align 4, !tbaa !13
  %10 = getelementptr inbounds nuw i8, ptr %1, i64 8
  %11 = load i32, ptr %10, align 8, !tbaa !12
  %12 = icmp slt i32 %9, %11
  br i1 %12, label %13, label %29

13:                                               ; preds = %7
  %14 = icmp slt i32 %11, 128
  %15 = shl nuw nsw i32 %11, 1
  %16 = add nuw nsw i32 %15, 128
  %17 = and i32 %16, 2147483520
  %18 = select i1 %14, i32 128, i32 %17
  %19 = load ptr, ptr %0, align 8, !tbaa !8
  %20 = shl nuw i32 %18, 1
  %21 = or disjoint i32 %20, 2
  %22 = zext i32 %21 to i64
  %23 = tail call ptr @uprv_realloc_77(ptr noundef %19, i64 noundef %22) #9
  store ptr %23, ptr %0, align 8, !tbaa !8
  %24 = icmp eq ptr %23, null
  br i1 %24, label %25, label %ustr_resize.exit

25:                                               ; preds = %13
  store i32 7, ptr %2, align 4, !tbaa !4
  %26 = getelementptr inbounds nuw i8, ptr %0, i64 8
  store i32 0, ptr %26, align 8, !tbaa !12
  br label %ustr_resize.exit

ustr_resize.exit:                                 ; preds = %13, %25
  %.sink = phi i32 [ 0, %25 ], [ %18, %13 ]
  store i32 %.sink, ptr %8, align 4, !tbaa !13
  %27 = load i32, ptr %2, align 4, !tbaa !4
  %28 = icmp sgt i32 %27, 0
  br i1 %28, label %43, label %29

29:                                               ; preds = %ustr_resize.exit, %7
  %30 = load ptr, ptr %1, align 8, !tbaa !8
  %31 = icmp eq ptr %30, null
  br i1 %31, label %43, label %32

32:                                               ; preds = %29
  %33 = load ptr, ptr %0, align 8, !tbaa !8
  %34 = icmp eq ptr %33, null
  br i1 %34, label %43, label %35

35:                                               ; preds = %32
  %36 = load i32, ptr %10, align 8, !tbaa !12
  %37 = tail call ptr @u_memcpy_77(ptr noundef nonnull %33, ptr noundef nonnull %30, i32 noundef %36) #10
  %38 = load i32, ptr %10, align 8, !tbaa !12
  %39 = getelementptr inbounds nuw i8, ptr %0, i64 8
  store i32 %38, ptr %39, align 8, !tbaa !12
  %40 = load ptr, ptr %0, align 8, !tbaa !8
  %41 = sext i32 %38 to i64
  %42 = getelementptr inbounds i16, ptr %40, i64 %41
  store i16 0, ptr %42, align 2, !tbaa !14
  br label %43

43:                                               ; preds = %29, %32, %ustr_resize.exit, %3, %35
  ret void
}